; Function Attrs: mustprogress uwtable
define noundef signext i8 @_ZNK6icu_7518AnnualTimeZoneRule14isEquivalentToERKNS_12TimeZoneRuleE(ptr noundef nonnull readonly align 8 dereferenceable(96) %this, ptr noundef nonnull readonly align 8 dereferenceable(80) %other) unnamed_addr #0 align 2 {
entry:
  %cmp = icmp eq ptr %this, %other
  br i1 %cmp, label %return, label %typeid.end

typeid.end:                                       ; preds = %entry
  %vtable = load ptr, ptr %this, align 8
  %0 = getelementptr inbounds i8, ptr %vtable, i64 -8
  %1 = load ptr, ptr %0, align 8
  %vtable2 = load ptr, ptr %other, align 8
  %2 = getelementptr inbounds i8, ptr %vtable2, i64 -8
  %3 = load ptr, ptr %2, align 8
  %__name.i.i = getelementptr inbounds i8, ptr %1, i64 8
  %4 = load ptr, ptr %__name.i.i, align 8
  %__name2.i.i = getelementptr inbounds i8, ptr %3, i64 8
  %5 = load ptr, ptr %__name2.i.i, align 8
  %cmp.i.i = icmp eq ptr %4, %5
  br i1 %cmp.i.i, label %land.lhs.true.i, label %if.end.i.i

if.end.i.i:                                       ; preds = %typeid.end
  %6 = load i8, ptr %4, align 1
  %cmp4.not.i.i = icmp eq i8 %6, 42
  br i1 %cmp4.not.i.i, label %return, label %_ZNKSt9type_infoneERKS_.exit

_ZNKSt9type_infoneERKS_.exit:                     ; preds = %if.end.i.i
  %7 = load i8, ptr %5, align 1
  %cmp.i.i.i = icmp eq i8 %7, 42
  %cond.idx.i.i.i = zext i1 %cmp.i.i.i to i64
  %cond.i.i.i = getelementptr inbounds i8, ptr %5, i64 %cond.idx.i.i.i
  %call6.i.i = tail call i32 @strcmp(ptr noundef nonnull dereferenceable(1) %4, ptr noundef nonnull dereferenceable(1) %cond.i.i.i) #16
  %cmp7.i.i.not = icmp eq i32 %call6.i.i, 0
  br i1 %cmp7.i.i.not, label %land.lhs.true.i, label %return

land.lhs.true.i:                                  ; preds = %_ZNKSt9type_infoneERKS_.exit, %typeid.end
  %fRawOffset.i = getelementptr inbounds i8, ptr %this, i64 72
  %8 = load i32, ptr %fRawOffset.i, align 8
  %fRawOffset3.i = getelementptr inbounds i8, ptr %other, i64 72
  %9 = load i32, ptr %fRawOffset3.i, align 8
  %cmp4.i = icmp eq i32 %8, %9
  br i1 %cmp4.i, label %_ZNK6icu_7512TimeZoneRule14isEquivalentToERKS0_.exit, label %return

_ZNK6icu_7512TimeZoneRule14isEquivalentToERKS0_.exit: ; preds = %land.lhs.true.i
  %fDSTSavings.i = getelementptr inbounds i8, ptr %this, i64 76
  %10 = load i32, ptr %fDSTSavings.i, align 4
  %fDSTSavings5.i = getelementptr inbounds i8, ptr %other, i64 76
  %11 = load i32, ptr %fDSTSavings5.i, align 4
  %cmp6.i.not = icmp eq i32 %10, %11
  br i1 %cmp6.i.not, label %if.end6, label %return

if.end6:                                          ; preds = %_ZNK6icu_7512TimeZoneRule14isEquivalentToERKS0_.exit
  %fDateTimeRule = getelementptr inbounds i8, ptr %this, i64 80
  %12 = load ptr, ptr %fDateTimeRule, align 8
  %fDateTimeRule7 = getelementptr inbounds i8, ptr %other, i64 80
  %13 = load ptr, ptr %fDateTimeRule7, align 8
  %call8 = tail call noundef zeroext i1 @_ZNK6icu_7512DateTimeRuleeqERKS0_(ptr noundef nonnull align 8 dereferenceable(36) %12, ptr noundef nonnull align 8 dereferenceable(36) %13)
  br i1 %call8, label %land.lhs.true, label %return

land.lhs.true:                                    ; preds = %if.end6
  %fStartYear = getelementptr inbounds i8, ptr %this, i64 88
  %14 = load i32, ptr %fStartYear, align 8
  %fStartYear9 = getelementptr inbounds i8, ptr %other, i64 88
  %15 = load i32, ptr %fStartYear9, align 8
  %cmp10 = icmp eq i32 %14, %15
  br i1 %cmp10, label %land.rhs, label %return

land.rhs:                                         ; preds = %land.lhs.true
  %fEndYear = getelementptr inbounds i8, ptr %this, i64 92
  %16 = load i32, ptr %fEndYear, align 4
  %fEndYear11 = getelementptr inbounds i8, ptr %other, i64 92
  %17 = load i32, ptr %fEndYear11, align 4
  %cmp12 = icmp eq i32 %16, %17
  %18 = zext i1 %cmp12 to i8
  br label %return

return:                                           ; preds = %land.lhs.true.i, %if.end.i.i, %if.end6, %land.lhs.true, %land.rhs, %_ZNKSt9type_infoneERKS_.exit, %_ZNK6icu_7512TimeZoneRule14isEquivalentToERKS0_.exit, %entry
  %retval.0 = phi i8 [ 1, %entry ], [ 0, %_ZNK6icu_7512TimeZoneRule14isEquivalentToERKS0_.exit ], [ 0, %_ZNKSt9type_infoneERKS_.exit ], [ 0, %land.lhs.true ], [ 0, %if.end6 ], [ %18, %land.rhs ], [ 0, %if.end.i.i ], [ 0, %land.lhs.true.i ]
  ret i8 %retval.0
}